target datalayout = "e-m:e-p270:32:32-p271:32:32-p272:64:64-i64:64-i128:128-f80:128-n8:16:32:64-S128"
target triple = "x86_64-pc-linux-gnu"

%struct.expert_field = type { i32, i32 }
%struct._proto_node = type { ptr, ptr, ptr, ptr, ptr, ptr, ptr }
%struct.field_info = type { ptr, i32, i32, i32, i32, i32, i32, ptr, ptr, ptr, i32, i32 }
%struct._packet_info = type { ptr, ptr, i32, i32, %struct.nstime_t, %struct.nstime_t, %struct.nstime_t, i8, ptr, ptr, ptr, ptr, %struct._address, %struct._address, %struct._address, %struct._address, %struct._address, %struct._address, i32, ptr, i8, [3 x i8], %struct.anon, i32, i32, i32, i32, ptr, i8, ptr, ptr, i16, i16, i32, i32, i16, i32, i32, ptr, ptr, ptr, i8, i8, i16, i16, i16, i32, i16, i16, ptr, ptr, ptr, ptr, ptr, i32, i32 }
%struct.nstime_t = type { i64, i32 }
%struct._address = type { i32, i32, ptr, ptr }
%struct.anon = type { i8, [3 x i8] }
%struct._asn1_ctx_t = type { i32, i32, i8, ptr, ptr, ptr, ptr, ptr, %struct.anon.0, %struct.anon.3, %struct.anon.4, ptr }
%struct.anon.0 = type { i32, i8, i8, i8, ptr, ptr, i32, i32, ptr, ptr, ptr, %union.anon }
%union.anon = type { %struct.anon.1 }
%struct.anon.1 = type { ptr }
%struct.anon.3 = type { ptr, ptr, ptr }
%struct.anon.4 = type { i32, i8, ptr, i32, i32, ptr, ptr, ptr, %union.anon.5 }
%union.anon.5 = type { %struct.anon.6 }
%struct.anon.6 = type { ptr }

@ei_per_undecoded = internal global %struct.expert_field zeroinitializer, align 4
@.str = private unnamed_addr constant [28 x i8] c"something unknown here [%s]\00", align 1
@.str.1 = private unnamed_addr constant [18 x i8] c"[UNKNOWN PER: %s]\00", align 1
@display_internal_per_fields = internal global i8 0, align 1
@hf_per_small_number_bit = internal global i32 0, align 4
@hf_per_normally_small_nonnegative_whole_number_length = internal global i32 0, align 4
@.str.178 = private unnamed_addr constant [62 x i8] c"too long integer(per_normally_small_nonnegative_whole_number)\00", align 1

; Function Attrs: null_pointer_is_valid sspstrong uwtable
define void @dissect_per_not_decoded_yet(ptr noundef %0, ptr noundef %1, ptr noundef %2, ptr noundef %3) #0 {
  %5 = alloca ptr, align 8
  %6 = alloca ptr, align 8
  %7 = alloca ptr, align 8
  %8 = alloca ptr, align 8
  store ptr %0, ptr %5, align 8
  store ptr %1, ptr %6, align 8
  store ptr %2, ptr %7, align 8
  store ptr %3, ptr %8, align 8
  %9 = load ptr, ptr %5, align 8
  %10 = load ptr, ptr %6, align 8
  %11 = load ptr, ptr %7, align 8
  %12 = load ptr, ptr %8, align 8
  %13 = call ptr (ptr, ptr, ptr, ptr, i32, i32, ptr, ...) @proto_tree_add_expert_format(ptr noundef %9, ptr noundef %10, ptr noundef @ei_per_undecoded, ptr noundef %11, i32 noundef 0, i32 noundef 0, ptr noundef @.str, ptr noundef %12)
  %14 = load ptr, ptr %6, align 8
  %15 = getelementptr inbounds nuw %struct._packet_info, ptr %14, i32 0, i32 1
  %16 = load ptr, ptr %15, align 8
  %17 = load ptr, ptr %8, align 8
  call void (ptr, i32, ptr, ...) @col_append_fstr(ptr noundef %16, i32 noundef 25, ptr noundef @.str.1, ptr noundef %17)
  call void @except_throw(i64 noundef 1, i64 noundef 3, ptr noundef null) #12
  unreachable
}

; Function Attrs: inlinehint nounwind null_pointer_is_valid sspstrong uwtable
define internal void @proto_item_set_hidden(ptr noundef %0) #3 {
  %2 = alloca ptr, align 8
  store ptr %0, ptr %2, align 8
  %3 = load ptr, ptr %2, align 8
  %4 = icmp ne ptr %3, null
  br i1 %4, label %5, label %24

5:                                                ; preds = %1
  br label %6

6:                                                ; preds = %5
  %7 = load ptr, ptr %2, align 8
  %8 = getelementptr inbounds nuw %struct._proto_node, ptr %7, i32 0, i32 5
  %9 = load ptr, ptr %8, align 8
  %10 = icmp ne ptr %9, null
  br i1 %10, label %11, label %22

11:                                               ; preds = %6
  %12 = load ptr, ptr %2, align 8
  %13 = getelementptr inbounds nuw %struct._proto_node, ptr %12, i32 0, i32 5
  %14 = load ptr, ptr %13, align 8
  %15 = getelementptr inbounds nuw %struct.field_info, ptr %14, i32 0, i32 6
  %16 = load i32, ptr %15, align 4
  %17 = or i32 %16, 1
  %18 = load ptr, ptr %2, align 8
  %19 = getelementptr inbounds nuw %struct._proto_node, ptr %18, i32 0, i32 5
  %20 = load ptr, ptr %19, align 8
  %21 = getelementptr inbounds nuw %struct.field_info, ptr %20, i32 0, i32 6
  store i32 %17, ptr %21, align 4
  br label %22

22:                                               ; preds = %11, %6
  br label %23

23:                                               ; preds = %22
  br label %24

24:                                               ; preds = %23, %1
  ret void
}

; Function Attrs: null_pointer_is_valid sspstrong uwtable
define internal i32 @dissect_per_normally_small_nonnegative_whole_number(ptr noundef %0, i32 noundef %1, ptr noundef %2, ptr noundef %3, i32 noundef %4, ptr noundef %5) #0 {
  %7 = alloca i32, align 4
  %8 = alloca ptr, align 8
  %9 = alloca i32, align 4
  %10 = alloca ptr, align 8
  %11 = alloca ptr, align 8
  %12 = alloca i32, align 4
  %13 = alloca ptr, align 8
  %14 = alloca i8, align 1
  %15 = alloca i8, align 1
  %16 = alloca i32, align 4
  %17 = alloca i32, align 4
  %18 = alloca ptr, align 8
  %19 = alloca i32, align 4
  %20 = alloca i32, align 4
  store ptr %0, ptr %8, align 8
  store i32 %1, ptr %9, align 4
  store ptr %2, ptr %10, align 8
  store ptr %3, ptr %11, align 8
  store i32 %4, ptr %12, align 4
  store ptr %5, ptr %13, align 8
  call void @llvm.lifetime.start.p0(i64 1, ptr %14) #11
  call void @llvm.lifetime.start.p0(i64 1, ptr %15) #11
  call void @llvm.lifetime.start.p0(i64 4, ptr %16) #11
  call void @llvm.lifetime.start.p0(i64 4, ptr %17) #11
  call void @llvm.lifetime.start.p0(i64 8, ptr %18) #11
  %21 = load ptr, ptr %13, align 8
  %22 = icmp ne ptr %21, null
  br i1 %22, label %24, label %23

23:                                               ; preds = %6
  store ptr %16, ptr %13, align 8
  br label %24

24:                                               ; preds = %23, %6
  %25 = load ptr, ptr %8, align 8
  %26 = load i32, ptr %9, align 4
  %27 = load ptr, ptr %10, align 8
  %28 = load ptr, ptr %11, align 8
  %29 = load i32, ptr @hf_per_small_number_bit, align 4
  %30 = call i32 @dissect_per_boolean(ptr noundef %25, i32 noundef %26, ptr noundef %27, ptr noundef %28, i32 noundef %29, ptr noundef %14)
  store i32 %30, ptr %9, align 4
  %31 = load i8, ptr @display_internal_per_fields, align 1, !range !6, !noundef !7
  %32 = trunc i8 %31 to i1
  br i1 %32, label %37, label %33

33:                                               ; preds = %24
  %34 = load ptr, ptr %10, align 8
  %35 = getelementptr inbounds nuw %struct._asn1_ctx_t, ptr %34, i32 0, i32 4
  %36 = load ptr, ptr %35, align 8
  call void @proto_item_set_hidden(ptr noundef %36)
  br label %37

37:                                               ; preds = %33, %24
  %38 = load i8, ptr %14, align 1, !range !6, !noundef !7
  %39 = trunc i8 %38 to i1
  br i1 %39, label %88, label %40

40:                                               ; preds = %37
  call void @llvm.lifetime.start.p0(i64 4, ptr %19) #11
  %41 = load ptr, ptr %13, align 8
  store i32 0, ptr %41, align 4
  store i32 0, ptr %19, align 4
  br label %42

42:                                               ; preds = %61, %40
  %43 = load i32, ptr %19, align 4
  %44 = icmp slt i32 %43, 6
  br i1 %44, label %45, label %64

45:                                               ; preds = %42
  %46 = load ptr, ptr %8, align 8
  %47 = load i32, ptr %9, align 4
  %48 = load ptr, ptr %10, align 8
  %49 = load ptr, ptr %11, align 8
  %50 = call i32 @dissect_per_boolean(ptr noundef %46, i32 noundef %47, ptr noundef %48, ptr noundef %49, i32 noundef -1, ptr noundef %15)
  store i32 %50, ptr %9, align 4
  %51 = load ptr, ptr %13, align 8
  %52 = load i32, ptr %51, align 4
  %53 = shl i32 %52, 1
  store i32 %53, ptr %51, align 4
  %54 = load i8, ptr %15, align 1, !range !6, !noundef !7
  %55 = trunc i8 %54 to i1
  br i1 %55, label %56, label %60

56:                                               ; preds = %45
  %57 = load ptr, ptr %13, align 8
  %58 = load i32, ptr %57, align 4
  %59 = or i32 %58, 1
  store i32 %59, ptr %57, align 4
  br label %60

60:                                               ; preds = %56, %45
  br label %61

61:                                               ; preds = %60
  %62 = load i32, ptr %19, align 4
  %63 = add i32 %62, 1
  store i32 %63, ptr %19, align 4
  br label %42, !llvm.loop !26

64:                                               ; preds = %42
  %65 = load i32, ptr %12, align 4
  %66 = icmp sgt i32 %65, 0
  br i1 %66, label %67, label %86

67:                                               ; preds = %64
  %68 = load ptr, ptr %11, align 8
  %69 = load i32, ptr %12, align 4
  %70 = load ptr, ptr %8, align 8
  %71 = load i32, ptr %9, align 4
  %72 = sub i32 %71, 6
  %73 = lshr i32 %72, 3
  %74 = load i32, ptr %9, align 4
  %75 = urem i32 %74, 8
  %76 = icmp ult i32 %75, 6
  %77 = select i1 %76, i32 2, i32 1
  %78 = load ptr, ptr %13, align 8
  %79 = load i32, ptr %78, align 4
  %80 = call ptr @proto_tree_add_uint(ptr noundef %68, i32 noundef %69, ptr noundef %70, i32 noundef %73, i32 noundef %77, i32 noundef %79)
  store ptr %80, ptr %18, align 8
  %81 = load i8, ptr @display_internal_per_fields, align 1, !range !6, !noundef !7
  %82 = trunc i8 %81 to i1
  br i1 %82, label %85, label %83

83:                                               ; preds = %67
  %84 = load ptr, ptr %18, align 8
  call void @proto_item_set_hidden(ptr noundef %84)
  br label %85

85:                                               ; preds = %83, %67
  br label %86

86:                                               ; preds = %85, %64
  %87 = load i32, ptr %9, align 4
  store i32 %87, ptr %7, align 4
  store i32 1, ptr %20, align 4
  call void @llvm.lifetime.end.p0(i64 4, ptr %19) #11
  br label %163

88:                                               ; preds = %37
  %89 = load ptr, ptr %8, align 8
  %90 = load i32, ptr %9, align 4
  %91 = load ptr, ptr %10, align 8
  %92 = load ptr, ptr %11, align 8
  %93 = load i32, ptr @hf_per_normally_small_nonnegative_whole_number_length, align 4
  %94 = call i32 @dissect_per_length_determinant(ptr noundef %89, i32 noundef %90, ptr noundef %91, ptr noundef %92, i32 noundef %93, ptr noundef %17, ptr noundef null)
  store i32 %94, ptr %9, align 4
  %95 = load i32, ptr %17, align 4
  switch i32 %95, label %128 [
    i32 0, label %96
    i32 1, label %98
    i32 2, label %106
    i32 3, label %114
    i32 4, label %121
  ]

96:                                               ; preds = %88
  %97 = load ptr, ptr %13, align 8
  store i32 0, ptr %97, align 4
  br label %140

98:                                               ; preds = %88
  %99 = load ptr, ptr %8, align 8
  %100 = load i32, ptr %9, align 4
  %101 = call zeroext i8 @tvb_get_bits8(ptr noundef %99, i32 noundef %100, i32 noundef 8)
  %102 = zext i8 %101 to i32
  %103 = load ptr, ptr %13, align 8
  store i32 %102, ptr %103, align 4
  %104 = load i32, ptr %9, align 4
  %105 = add i32 %104, 8
  store i32 %105, ptr %9, align 4
  br label %140

106:                                              ; preds = %88
  %107 = load ptr, ptr %8, align 8
  %108 = load i32, ptr %9, align 4
  %109 = call zeroext i16 @tvb_get_bits16(ptr noundef %107, i32 noundef %108, i32 noundef 16, i32 noundef 0)
  %110 = zext i16 %109 to i32
  %111 = load ptr, ptr %13, align 8
  store i32 %110, ptr %111, align 4
  %112 = load i32, ptr %9, align 4
  %113 = add i32 %112, 16
  store i32 %113, ptr %9, align 4
  br label %140

114:                                              ; preds = %88
  %115 = load ptr, ptr %8, align 8
  %116 = load i32, ptr %9, align 4
  %117 = call i32 @tvb_get_bits32(ptr noundef %115, i32 noundef %116, i32 noundef 24, i32 noundef 0)
  %118 = load ptr, ptr %13, align 8
  store i32 %117, ptr %118, align 4
  %119 = load i32, ptr %9, align 4
  %120 = add i32 %119, 24
  store i32 %120, ptr %9, align 4
  br label %140

121:                                              ; preds = %88
  %122 = load ptr, ptr %8, align 8
  %123 = load i32, ptr %9, align 4
  %124 = call i32 @tvb_get_bits32(ptr noundef %122, i32 noundef %123, i32 noundef 32, i32 noundef 0)
  %125 = load ptr, ptr %13, align 8
  store i32 %124, ptr %125, align 4
  %126 = load i32, ptr %9, align 4
  %127 = add i32 %126, 32
  store i32 %127, ptr %9, align 4
  br label %140

128:                                              ; preds = %88
  %129 = load ptr, ptr %11, align 8
  %130 = load ptr, ptr %10, align 8
  %131 = getelementptr inbounds nuw %struct._asn1_ctx_t, ptr %130, i32 0, i32 3
  %132 = load ptr, ptr %131, align 8
  %133 = load ptr, ptr %8, align 8
  call void @dissect_per_not_decoded_yet(ptr noundef %129, ptr noundef %132, ptr noundef %133, ptr noundef @.str.178)
  %134 = load i32, ptr %17, align 4
  %135 = mul i32 8, %134
  %136 = load i32, ptr %9, align 4
  %137 = add i32 %136, %135
  store i32 %137, ptr %9, align 4
  %138 = load ptr, ptr %13, align 8
  store i32 0, ptr %138, align 4
  %139 = load i32, ptr %9, align 4
  store i32 %139, ptr %7, align 4
  store i32 1, ptr %20, align 4
  br label %163

140:                                              ; preds = %121, %114, %106, %98, %96
  %141 = load i32, ptr %12, align 4
  %142 = icmp sgt i32 %141, 0
  br i1 %142, label %143, label %161

143:                                              ; preds = %140
  %144 = load ptr, ptr %11, align 8
  %145 = load i32, ptr %12, align 4
  %146 = load ptr, ptr %8, align 8
  %147 = load i32, ptr %9, align 4
  %148 = load i32, ptr %17, align 4
  %149 = mul i32 8, %148
  %150 = sub i32 %147, %149
  %151 = lshr i32 %150, 3
  %152 = load i32, ptr %17, align 4
  %153 = load ptr, ptr %13, align 8
  %154 = load i32, ptr %153, align 4
  %155 = call ptr @proto_tree_add_uint(ptr noundef %144, i32 noundef %145, ptr noundef %146, i32 noundef %151, i32 noundef %152, i32 noundef %154)
  store ptr %155, ptr %18, align 8
  %156 = load i8, ptr @display_internal_per_fields, align 1, !range !6, !noundef !7
  %157 = trunc i8 %156 to i1
  br i1 %157, label %160, label %158

158:                                              ; preds = %143
  %159 = load ptr, ptr %18, align 8
  call void @proto_item_set_hidden(ptr noundef %159)
  br label %160

160:                                              ; preds = %158, %143
  br label %161

161:                                              ; preds = %160, %140
  %162 = load i32, ptr %9, align 4
  store i32 %162, ptr %7, align 4
  store i32 1, ptr %20, align 4
  br label %163

163:                                              ; preds = %161, %128, %86
  call void @llvm.lifetime.end.p0(i64 8, ptr %18) #11
  call void @llvm.lifetime.end.p0(i64 4, ptr %17) #11
  call void @llvm.lifetime.end.p0(i64 4, ptr %16) #11
  call void @llvm.lifetime.end.p0(i64 1, ptr %15) #11
  call void @llvm.lifetime.end.p0(i64 1, ptr %14) #11
  %164 = load i32, ptr %7, align 4
  ret i32 %164
}