; Function Attrs: null_pointer_is_valid sspstrong uwtable
define internal fastcc i32 @dissect_per_normally_small_nonnegative_whole_number(ptr noundef %0, i32 noundef %1, ptr noundef captures(none) initializes((24, 32)) %2, ptr noundef %3, i32 noundef %4, ptr noundef captures(address_is_null) %5) unnamed_addr #0 {
  %7 = alloca i8, align 1
  %8 = alloca i32, align 4
  call void @llvm.lifetime.start.p0(i64 1, ptr nonnull %7) #13
  call void @llvm.lifetime.start.p0(i64 4, ptr nonnull %8) #13
  %.not = icmp eq ptr %5, null
  %9 = load i32, ptr @hf_per_small_number_bit, align 4
  %10 = call i32 @dissect_per_boolean(ptr noundef %0, i32 noundef %1, ptr noundef %2, ptr noundef %3, i32 noundef %9, ptr noundef nonnull %7)
  %11 = load i8, ptr @display_internal_per_fields, align 1, !range !6, !noundef !7
  %12 = trunc nuw i8 %11 to i1
  br i1 %12, label %proto_item_set_hidden.exit, label %13

13:                                               ; preds = %6
  %14 = getelementptr inbounds nuw i8, ptr %2, i64 24
  %15 = load ptr, ptr %14, align 8
  %.not.i = icmp eq ptr %15, null
  br i1 %.not.i, label %proto_item_set_hidden.exit, label %16

16:                                               ; preds = %13
  %17 = getelementptr inbounds nuw i8, ptr %15, i64 40
  %18 = load ptr, ptr %17, align 8
  %.not5.i = icmp eq ptr %18, null
  br i1 %.not5.i, label %proto_item_set_hidden.exit, label %19

19:                                               ; preds = %16
  %20 = getelementptr inbounds nuw i8, ptr %18, i64 28
  %21 = load i32, ptr %20, align 4
  %22 = or i32 %21, 1
  store i32 %22, ptr %20, align 4
  br label %proto_item_set_hidden.exit

proto_item_set_hidden.exit:                       ; preds = %19, %16, %13, %6
  %23 = load i8, ptr %7, align 1, !range !6, !noundef !7
  %24 = trunc nuw i8 %23 to i1
  br i1 %24, label %61, label %25

25:                                               ; preds = %proto_item_set_hidden.exit
  br i1 %.not, label %.cont73.us.preheader, label %.cont73.thread.preheader

.cont73.thread.preheader:                         ; preds = %25
  store i32 0, ptr %5, align 4
  %26 = getelementptr inbounds nuw i8, ptr %2, i64 24
  br label %.cont73.thread

.cont73.us.preheader:                             ; preds = %25
  %27 = getelementptr inbounds nuw i8, ptr %2, i64 24
  br label %.cont73.us

.cont73.us:                                       ; preds = %.cont73.us.preheader, %.cont73.us
  %.0129.us = phi i32 [ %37, %.cont73.us ], [ 0, %.cont73.us.preheader ]
  %.060128.us = phi i32 [ %33, %.cont73.us ], [ %10, %.cont73.us.preheader ]
  %.0105127.us = phi i32 [ %spec.select.us, %.cont73.us ], [ 0, %.cont73.us.preheader ]
  %28 = lshr i32 %.060128.us, 3
  %29 = call zeroext i8 @tvb_get_uint8(ptr noundef %0, i32 noundef %28)
  %30 = and i32 %.060128.us, 7
  %31 = xor i32 %30, 7
  %32 = zext i8 %29 to i32
  store ptr null, ptr %27, align 8
  %33 = add i32 %.060128.us, 1
  %34 = shl i32 %.0105127.us, 1
  %35 = lshr i32 %32, %31
  %36 = and i32 %35, 1
  %spec.select.us = or disjoint i32 %36, %34
  %37 = add nuw nsw i32 %.0129.us, 1
  %exitcond133.not = icmp eq i32 %37, 6
  br i1 %exitcond133.not, label %.split.us, label %.cont73.us, !llvm.loop !26

.cont73.thread:                                   ; preds = %.cont73.thread.preheader, %.cont73.thread
  %.0129 = phi i32 [ %47, %.cont73.thread ], [ 0, %.cont73.thread.preheader ]
  %.060128 = phi i32 [ %43, %.cont73.thread ], [ %10, %.cont73.thread.preheader ]
  %38 = lshr i32 %.060128, 3
  %39 = call zeroext i8 @tvb_get_uint8(ptr noundef %0, i32 noundef %38)
  %40 = and i32 %.060128, 7
  %41 = xor i32 %40, 7
  %42 = zext i8 %39 to i32
  store ptr null, ptr %26, align 8
  %43 = add i32 %.060128, 1
  %.else.val79 = load i32, ptr %5, align 4
  %44 = shl i32 %.else.val79, 1
  %45 = lshr i32 %42, %41
  %46 = and i32 %45, 1
  %spec.select = or disjoint i32 %44, %46
  store i32 %spec.select, ptr %5, align 4
  %47 = add nuw nsw i32 %.0129, 1
  %exitcond.not = icmp eq i32 %47, 6
  br i1 %exitcond.not, label %.split.us, label %.cont73.thread, !llvm.loop !26

.split.us:                                        ; preds = %.cont73.thread, %.cont73.us
  %.us-phi = phi i32 [ %spec.select.us, %.cont73.us ], [ 0, %.cont73.thread ]
  %.us-phi130 = phi i32 [ %33, %.cont73.us ], [ %43, %.cont73.thread ]
  %48 = icmp sgt i32 %4, 0
  br i1 %48, label %49, label %proto_item_set_hidden.exit67

49:                                               ; preds = %.split.us
  %50 = add i32 %.us-phi130, -6
  %51 = lshr i32 %50, 3
  %52 = and i32 %.us-phi130, 6
  %.not63 = icmp eq i32 %52, 6
  %53 = select i1 %.not63, i32 1, i32 2
  br i1 %.not, label %.cont, label %.else

.else:                                            ; preds = %49
  %.else.val = load i32, ptr %5, align 4
  br label %.cont

.cont:                                            ; preds = %49, %.else
  %54 = phi i32 [ %.us-phi, %49 ], [ %.else.val, %.else ]
  %55 = call ptr @proto_tree_add_uint(ptr noundef %3, i32 noundef %4, ptr noundef %0, i32 noundef %51, i32 noundef %53, i32 noundef %54)
  %56 = load i8, ptr @display_internal_per_fields, align 1, !range !6, !noundef !7
  %57 = trunc nuw i8 %56 to i1
  %.not.i65 = icmp eq ptr %55, null
  %or.cond = select i1 %57, i1 true, i1 %.not.i65
  br i1 %or.cond, label %proto_item_set_hidden.exit67, label %58

58:                                               ; preds = %.cont
  %59 = getelementptr inbounds nuw i8, ptr %55, i64 40
  %60 = load ptr, ptr %59, align 8
  %.not5.i66 = icmp eq ptr %60, null
  br i1 %.not5.i66, label %proto_item_set_hidden.exit67, label %proto_item_set_hidden.exit67.sink.split

61:                                               ; preds = %proto_item_set_hidden.exit
  %62 = load i32, ptr @hf_per_normally_small_nonnegative_whole_number_length, align 4
  %63 = call i32 @dissect_per_length_determinant(ptr noundef %0, i32 noundef %10, ptr noundef %2, ptr noundef %3, i32 noundef %62, ptr noundef nonnull %8, ptr noundef null)
  %64 = load i32, ptr %8, align 4
  switch i32 %64, label %76 [
    i32 0, label %65
    i32 1, label %66
    i32 2, label %69
    i32 3, label %72
    i32 4, label %74
  ]

65:                                               ; preds = %61
  br i1 %.not, label %.cont83.thread120, label %.cont83.thread

66:                                               ; preds = %61
  %67 = call zeroext i8 @tvb_get_bits8(ptr noundef %0, i32 noundef %63, i32 noundef 8)
  %68 = zext i8 %67 to i32
  br i1 %.not, label %.cont83, label %.cont83.sink.split

69:                                               ; preds = %61
  %70 = call zeroext i16 @tvb_get_bits16(ptr noundef %0, i32 noundef %63, i32 noundef 16, i32 noundef 0)
  %71 = zext i16 %70 to i32
  br i1 %.not, label %.cont83, label %.cont83.sink.split

72:                                               ; preds = %61
  %73 = call i32 @tvb_get_bits32(ptr noundef %0, i32 noundef %63, i32 noundef 24, i32 noundef 0)
  br i1 %.not, label %.cont83, label %.cont83.sink.split

74:                                               ; preds = %61
  %75 = call i32 @tvb_get_bits32(ptr noundef %0, i32 noundef %63, i32 noundef 32, i32 noundef 0)
  br i1 %.not, label %.cont83, label %.cont83.sink.split

76:                                               ; preds = %61
  %77 = getelementptr inbounds nuw i8, ptr %2, i64 16
  %78 = load ptr, ptr %77, align 8
  %79 = call ptr (ptr, ptr, ptr, ptr, i32, i32, ptr, ...) @proto_tree_add_expert_format(ptr noundef %3, ptr noundef %78, ptr noundef nonnull @ei_per_undecoded, ptr noundef %0, i32 noundef 0, i32 noundef 0, ptr noundef nonnull @.str, ptr noundef nonnull @.str.178)
  %80 = getelementptr inbounds nuw i8, ptr %78, i64 8
  %81 = load ptr, ptr %80, align 8
  call void (ptr, i32, ptr, ...) @col_append_fstr(ptr noundef %81, i32 noundef 25, ptr noundef nonnull @.str.1, ptr noundef nonnull @.str.178)
  call void @except_throw(i64 noundef 1, i64 noundef 3, ptr noundef null) #12
  unreachable

.cont83.sink.split:                               ; preds = %74, %72, %69, %66
  %.sink142 = phi i32 [ %68, %66 ], [ %71, %69 ], [ %73, %72 ], [ %75, %74 ]
  %.sink.ph = phi i32 [ 8, %66 ], [ 16, %69 ], [ 24, %72 ], [ 32, %74 ]
  store i32 %.sink142, ptr %5, align 4
  br label %.cont83

.cont83:                                          ; preds = %.cont83.sink.split, %74, %72, %69, %66
  %.sink = phi i32 [ 8, %66 ], [ 16, %69 ], [ 24, %72 ], [ 32, %74 ], [ %.sink.ph, %.cont83.sink.split ]
  %.2 = phi i32 [ %68, %66 ], [ %71, %69 ], [ %73, %72 ], [ %75, %74 ], [ undef, %.cont83.sink.split ]
  %82 = add i32 %63, %.sink
  %83 = icmp sgt i32 %4, 0
  br i1 %83, label %86, label %proto_item_set_hidden.exit67

.cont83.thread120:                                ; preds = %65
  %84 = icmp sgt i32 %4, 0
  br i1 %84, label %.cont95, label %proto_item_set_hidden.exit67

.cont83.thread:                                   ; preds = %65
  store i32 0, ptr %5, align 4
  %85 = icmp sgt i32 %4, 0
  br i1 %85, label %.cont95, label %proto_item_set_hidden.exit67

86:                                               ; preds = %.cont83
  %87 = load i32, ptr %8, align 4
  %88 = shl i32 %87, 3
  %89 = sub i32 %82, %88
  br i1 %.not, label %.cont95, label %..else97_crit_edge

..else97_crit_edge:                               ; preds = %86
  %.else.val98.pre = load i32, ptr %5, align 4
  br label %.cont95

.cont95:                                          ; preds = %.cont83.thread, %.cont83.thread120, %..else97_crit_edge, %86
  %.in = phi i32 [ %89, %86 ], [ %89, %..else97_crit_edge ], [ %63, %.cont83.thread120 ], [ %63, %.cont83.thread ]
  %90 = phi i32 [ %87, %86 ], [ %87, %..else97_crit_edge ], [ 0, %.cont83.thread120 ], [ 0, %.cont83.thread ]
  %.1114119 = phi i32 [ %82, %86 ], [ %82, %..else97_crit_edge ], [ %63, %.cont83.thread120 ], [ %63, %.cont83.thread ]
  %91 = phi i32 [ %.2, %86 ], [ %.else.val98.pre, %..else97_crit_edge ], [ 0, %.cont83.thread120 ], [ 0, %.cont83.thread ]
  %92 = lshr i32 %.in, 3
  %93 = call ptr @proto_tree_add_uint(ptr noundef %3, i32 noundef %4, ptr noundef %0, i32 noundef %92, i32 noundef %90, i32 noundef %91)
  %94 = load i8, ptr @display_internal_per_fields, align 1, !range !6, !noundef !7
  %95 = trunc nuw i8 %94 to i1
  %.not.i68 = icmp eq ptr %93, null
  %or.cond126 = select i1 %95, i1 true, i1 %.not.i68
  br i1 %or.cond126, label %proto_item_set_hidden.exit67, label %96

96:                                               ; preds = %.cont95
  %97 = getelementptr inbounds nuw i8, ptr %93, i64 40
  %98 = load ptr, ptr %97, align 8
  %.not5.i69 = icmp eq ptr %98, null
  br i1 %.not5.i69, label %proto_item_set_hidden.exit67, label %proto_item_set_hidden.exit67.sink.split

proto_item_set_hidden.exit67.sink.split:          ; preds = %96, %58
  %.sink141 = phi ptr [ %60, %58 ], [ %98, %96 ]
  %.059.ph = phi i32 [ %.us-phi130, %58 ], [ %.1114119, %96 ]
  %99 = getelementptr inbounds nuw i8, ptr %.sink141, i64 28
  %100 = load i32, ptr %99, align 4
  %101 = or i32 %100, 1
  store i32 %101, ptr %99, align 4
  br label %proto_item_set_hidden.exit67

proto_item_set_hidden.exit67:                     ; preds = %proto_item_set_hidden.exit67.sink.split, %96, %.cont83.thread120, %.cont83.thread, %58, %.cont83, %.cont95, %.split.us, %.cont
  %.059 = phi i32 [ %.us-phi130, %.cont ], [ %.us-phi130, %.split.us ], [ %.1114119, %.cont95 ], [ %82, %.cont83 ], [ %.us-phi130, %58 ], [ %63, %.cont83.thread ], [ %63, %.cont83.thread120 ], [ %.1114119, %96 ], [ %.059.ph, %proto_item_set_hidden.exit67.sink.split ]
  call void @llvm.lifetime.end.p0(i64 4, ptr nonnull %8) #13
  call void @llvm.lifetime.end.p0(i64 1, ptr nonnull %7) #13
  ret i32 %.059
}